target datalayout = "e-m:e-p270:32:32-p271:32:32-p272:64:64-i64:64-i128:128-f80:128-n8:16:32:64-S128"
target triple = "x86_64-pc-linux-gnu"

%"struct.Eigen::internal::evaluator" = type { %"struct.Eigen::internal::evaluator.128" }
%"struct.Eigen::internal::evaluator.128" = type { %"class.Eigen::internal::plainobjectbase_evaluator_data" }
%"class.Eigen::internal::plainobjectbase_evaluator_data" = type { ptr }
%"class.Eigen::PlainObjectBase" = type { %"class.Eigen::DenseStorage" }
%"class.Eigen::DenseStorage" = type { %"struct.Eigen::internal::plain_array" }
%"struct.Eigen::internal::plain_array" = type { [3 x double] }

; Function Attrs: inlinehint mustprogress nounwind ssp uwtable
define linkonce_odr void @_ZN5Eigen8internal22ignore_unused_variableIlEEvRKT_(ptr noundef nonnull align 8 dereferenceable(8) %0) #16 comdat {
  %2 = alloca ptr, align 8
  store ptr %0, ptr %2, align 8, !tbaa !344
  ret void
}

; Function Attrs: mustprogress nounwind ssp uwtable
define linkonce_odr noundef ptr @_ZNK5Eigen12DenseStorageIdLi3ELi3ELi1ELi0EE4dataEv(ptr noundef nonnull align 8 dereferenceable(24) %0) #0 comdat align 2 {
  %2 = alloca ptr, align 8
  store ptr %0, ptr %2, align 8, !tbaa !781
  %3 = load ptr, ptr %2, align 8
  %4 = getelementptr inbounds nuw %"class.Eigen::DenseStorage", ptr %3, i32 0, i32 0
  %5 = getelementptr inbounds nuw %"struct.Eigen::internal::plain_array", ptr %4, i32 0, i32 0
  %6 = getelementptr inbounds [3 x double], ptr %5, i64 0, i64 0
  ret ptr %6
}

; Function Attrs: inlinehint mustprogress ssp uwtable
define linkonce_odr void @_ZN5Eigen8internal30plainobjectbase_evaluator_dataIdLi0EEC2EPKdl(ptr noundef nonnull align 8 dereferenceable(8) %0, ptr noundef %1, i64 noundef %2) unnamed_addr #9 comdat align 2 {
  %4 = alloca ptr, align 8
  %5 = alloca ptr, align 8
  %6 = alloca i64, align 8
  store ptr %0, ptr %4, align 8, !tbaa !778
  store ptr %1, ptr %5, align 8, !tbaa !395
  store i64 %2, ptr %6, align 8, !tbaa !47
  %7 = load ptr, ptr %4, align 8
  %8 = getelementptr inbounds nuw %"class.Eigen::internal::plainobjectbase_evaluator_data", ptr %7, i32 0, i32 0
  %9 = load ptr, ptr %5, align 8, !tbaa !395
  store ptr %9, ptr %8, align 8, !tbaa !780
  call void @_ZN5Eigen8internal22ignore_unused_variableIlEEvRKT_(ptr noundef nonnull align 8 dereferenceable(8) %6)
  ret void
}

; Function Attrs: inlinehint mustprogress ssp uwtable
define linkonce_odr noundef ptr @_ZNK5Eigen15PlainObjectBaseINS_6MatrixIdLi3ELi1ELi0ELi3ELi1EEEE4dataEv(ptr noundef nonnull align 8 dereferenceable(24) %0) #9 comdat align 2 {
  %2 = alloca ptr, align 8
  store ptr %0, ptr %2, align 8, !tbaa !776
  %3 = load ptr, ptr %2, align 8
  %4 = getelementptr inbounds nuw %"class.Eigen::PlainObjectBase", ptr %3, i32 0, i32 0
  %5 = call noundef ptr @_ZNK5Eigen12DenseStorageIdLi3ELi3ELi1ELi0EE4dataEv(ptr noundef nonnull align 8 dereferenceable(24) %4)
  ret ptr %5
}

; Function Attrs: inlinehint mustprogress nounwind ssp uwtable
define linkonce_odr void @_ZN5Eigen8internal14evaluator_baseINS_6MatrixIdLi3ELi1ELi0ELi3ELi1EEEEC2Ev(ptr noundef nonnull align 1 dereferenceable(1) %0) unnamed_addr #16 comdat align 2 {
  %2 = alloca ptr, align 8
  store ptr %0, ptr %2, align 8, !tbaa !774
  ret void
}

; Function Attrs: inlinehint mustprogress ssp uwtable
define linkonce_odr void @_ZN5Eigen8internal9evaluatorINS_15PlainObjectBaseINS_6MatrixIdLi3ELi1ELi0ELi3ELi1EEEEEEC2ERKS5_(ptr noundef nonnull align 8 dereferenceable(8) %0, ptr noundef nonnull align 8 dereferenceable(24) %1) unnamed_addr #9 comdat align 2 personality ptr @__gxx_personality_v0 {
  %3 = alloca ptr, align 8
  %4 = alloca ptr, align 8
  %5 = alloca ptr, align 8
  %6 = alloca i32, align 4
  store ptr %0, ptr %3, align 8, !tbaa !769
  store ptr %1, ptr %4, align 8, !tbaa !776
  %7 = load ptr, ptr %3, align 8
  call void @_ZN5Eigen8internal14evaluator_baseINS_6MatrixIdLi3ELi1ELi0ELi3ELi1EEEEC2Ev(ptr noundef nonnull align 1 dereferenceable(1) %7)
  %8 = getelementptr inbounds nuw %"struct.Eigen::internal::evaluator.128", ptr %7, i32 0, i32 0
  %9 = load ptr, ptr %4, align 8, !tbaa !776
  %10 = invoke noundef ptr @_ZNK5Eigen15PlainObjectBaseINS_6MatrixIdLi3ELi1ELi0ELi3ELi1EEEE4dataEv(ptr noundef nonnull align 8 dereferenceable(24) %9)
          to label %11 unwind label %13

11:                                               ; preds = %2
  invoke void @_ZN5Eigen8internal30plainobjectbase_evaluator_dataIdLi0EEC2EPKdl(ptr noundef nonnull align 8 dereferenceable(8) %8, ptr noundef %10, i64 noundef 0)
          to label %12 unwind label %13

12:                                               ; preds = %11
  ret void

13:                                               ; preds = %11, %2
  %14 = landingpad { ptr, i32 }
          cleanup
  %15 = extractvalue { ptr, i32 } %14, 0
  store ptr %15, ptr %5, align 8
  %16 = extractvalue { ptr, i32 } %14, 1
  store i32 %16, ptr %6, align 4
  call void @_ZN5Eigen8internal14evaluator_baseINS_6MatrixIdLi3ELi1ELi0ELi3ELi1EEEED2Ev(ptr noundef nonnull align 1 dereferenceable(1) %7) #27
  br label %17

17:                                               ; preds = %13
  %18 = load ptr, ptr %5, align 8
  %19 = load i32, ptr %6, align 4
  %20 = insertvalue { ptr, i32 } poison, ptr %18, 0
  %21 = insertvalue { ptr, i32 } %20, i32 %19, 1
  resume { ptr, i32 } %21
}

; Function Attrs: inlinehint mustprogress nounwind ssp uwtable
define linkonce_odr void @_ZN5Eigen8internal14evaluator_baseINS_6MatrixIdLi3ELi1ELi0ELi3ELi1EEEED2Ev(ptr noundef nonnull align 1 dereferenceable(1) %0) unnamed_addr #16 comdat align 2 {
  %2 = alloca ptr, align 8
  store ptr %0, ptr %2, align 8, !tbaa !774
  ret void
}

; Function Attrs: inlinehint mustprogress nounwind ssp uwtable
define linkonce_odr noundef nonnull align 8 dereferenceable(8) ptr @_ZN5Eigen8internal9evaluatorINS_15PlainObjectBaseINS_6MatrixIdLi3ELi1ELi0ELi3ELi1EEEEEE8coeffRefEl(ptr noundef nonnull align 8 dereferenceable(8) %0, i64 noundef %1) #16 comdat align 2 {
  %3 = alloca ptr, align 8
  %4 = alloca i64, align 8
  store ptr %0, ptr %3, align 8, !tbaa !769
  store i64 %1, ptr %4, align 8, !tbaa !47
  %5 = load ptr, ptr %3, align 8
  %6 = getelementptr inbounds nuw %"struct.Eigen::internal::evaluator.128", ptr %5, i32 0, i32 0
  %7 = getelementptr inbounds nuw %"class.Eigen::internal::plainobjectbase_evaluator_data", ptr %6, i32 0, i32 0
  %8 = load ptr, ptr %7, align 8, !tbaa !771
  %9 = load i64, ptr %4, align 8, !tbaa !47
  %10 = getelementptr inbounds double, ptr %8, i64 %9
  ret ptr %10
}

; Function Attrs: inlinehint mustprogress ssp uwtable
define linkonce_odr void @_ZN5Eigen8internal9evaluatorINS_6MatrixIdLi3ELi1ELi0ELi3ELi1EEEEC2ERKS3_(ptr noundef nonnull align 8 dereferenceable(8) %0, ptr noundef nonnull align 8 dereferenceable(24) %1) unnamed_addr #9 comdat align 2 {
  %3 = alloca ptr, align 8
  %4 = alloca ptr, align 8
  store ptr %0, ptr %3, align 8, !tbaa !767
  store ptr %1, ptr %4, align 8, !tbaa !761
  %5 = load ptr, ptr %3, align 8
  %6 = load ptr, ptr %4, align 8, !tbaa !761
  call void @_ZN5Eigen8internal9evaluatorINS_15PlainObjectBaseINS_6MatrixIdLi3ELi1ELi0ELi3ELi1EEEEEEC2ERKS5_(ptr noundef nonnull align 8 dereferenceable(8) %5, ptr noundef nonnull align 8 dereferenceable(24) %6)
  ret void
}

; Function Attrs: mustprogress nounwind ssp uwtable
define linkonce_odr noundef nonnull align 8 dereferenceable(24) ptr @_ZN5Eigen9EigenBaseINS_6MatrixIdLi3ELi1ELi0ELi3ELi1EEEE7derivedEv(ptr noundef nonnull align 1 dereferenceable(1) %0) #0 comdat align 2 {
  %2 = alloca ptr, align 8
  store ptr %0, ptr %2, align 8, !tbaa !765
  %3 = load ptr, ptr %2, align 8
  ret ptr %3
}

; Function Attrs: inlinehint mustprogress ssp uwtable
define linkonce_odr noundef nonnull align 8 dereferenceable(8) ptr @_ZN5Eigen15DenseCoeffsBaseINS_6MatrixIdLi3ELi1ELi0ELi3ELi1EEELi1EE8coeffRefEl(ptr noundef nonnull align 1 dereferenceable(1) %0, i64 noundef %1) #9 comdat align 2 personality ptr @__gxx_personality_v0 {
  %3 = alloca ptr, align 8
  %4 = alloca i64, align 8
  %5 = alloca %"struct.Eigen::internal::evaluator", align 8
  %6 = alloca ptr, align 8
  %7 = alloca i32, align 4
  store ptr %0, ptr %3, align 8, !tbaa !763
  store i64 %1, ptr %4, align 8, !tbaa !47
  %8 = load ptr, ptr %3, align 8
  call void @llvm.lifetime.start.p0(i64 8, ptr %5) #27
  %9 = call noundef nonnull align 8 dereferenceable(24) ptr @_ZN5Eigen9EigenBaseINS_6MatrixIdLi3ELi1ELi0ELi3ELi1EEEE7derivedEv(ptr noundef nonnull align 1 dereferenceable(1) %8)
  call void @_ZN5Eigen8internal9evaluatorINS_6MatrixIdLi3ELi1ELi0ELi3ELi1EEEEC2ERKS3_(ptr noundef nonnull align 8 dereferenceable(8) %5, ptr noundef nonnull align 8 dereferenceable(24) %9)
  %10 = load i64, ptr %4, align 8, !tbaa !47
  %11 = invoke noundef nonnull align 8 dereferenceable(8) ptr @_ZN5Eigen8internal9evaluatorINS_15PlainObjectBaseINS_6MatrixIdLi3ELi1ELi0ELi3ELi1EEEEEE8coeffRefEl(ptr noundef nonnull align 8 dereferenceable(8) %5, i64 noundef %10)
          to label %12 unwind label %13

12:                                               ; preds = %2
  call void @_ZN5Eigen8internal14evaluator_baseINS_6MatrixIdLi3ELi1ELi0ELi3ELi1EEEED2Ev(ptr noundef nonnull align 8 dereferenceable(8) %5) #27
  call void @llvm.lifetime.end.p0(i64 8, ptr %5) #27
  ret ptr %11

13:                                               ; preds = %2
  %14 = landingpad { ptr, i32 }
          cleanup
  %15 = extractvalue { ptr, i32 } %14, 0
  store ptr %15, ptr %6, align 8
  %16 = extractvalue { ptr, i32 } %14, 1
  store i32 %16, ptr %7, align 4
  call void @_ZN5Eigen8internal14evaluator_baseINS_6MatrixIdLi3ELi1ELi0ELi3ELi1EEEED2Ev(ptr noundef nonnull align 8 dereferenceable(8) %5) #27
  call void @llvm.lifetime.end.p0(i64 8, ptr %5) #27
  br label %17

17:                                               ; preds = %13
  %18 = load ptr, ptr %6, align 8
  %19 = load i32, ptr %7, align 4
  %20 = insertvalue { ptr, i32 } poison, ptr %18, 0
  %21 = insertvalue { ptr, i32 } %20, i32 %19, 1
  resume { ptr, i32 } %21
}

; Function Attrs: inlinehint mustprogress ssp uwtable
define linkonce_odr noundef nonnull align 8 dereferenceable(8) ptr @_ZN5Eigen15DenseCoeffsBaseINS_6MatrixIdLi3ELi1ELi0ELi3ELi1EEELi1EEclEl(ptr noundef nonnull align 1 dereferenceable(1) %0, i64 noundef %1) #9 comdat align 2 {
  %3 = alloca ptr, align 8
  %4 = alloca i64, align 8
  store ptr %0, ptr %3, align 8, !tbaa !763
  store i64 %1, ptr %4, align 8, !tbaa !47
  %5 = load ptr, ptr %3, align 8
  %6 = load i64, ptr %4, align 8, !tbaa !47
  %7 = call noundef nonnull align 8 dereferenceable(8) ptr @_ZN5Eigen15DenseCoeffsBaseINS_6MatrixIdLi3ELi1ELi0ELi3ELi1EEELi1EE8coeffRefEl(ptr noundef nonnull align 1 dereferenceable(1) %5, i64 noundef %6)
  ret ptr %7
}

; Function Attrs: mustprogress ssp uwtable
define noundef zeroext i1 @_ZN6open3d7utility16IJsonConvertible26EigenVector3dFromJsonArrayERN5Eigen6MatrixIdLi3ELi1ELi0ELi3ELi1EEERKN4Json5ValueE(ptr noundef nonnull align 8 dereferenceable(24) %0, ptr noundef nonnull align 8 dereferenceable(40) %1) #1 align 2 {
  %3 = alloca i1, align 1
  %4 = alloca ptr, align 8
  %5 = alloca ptr, align 8
  store ptr %0, ptr %4, align 8, !tbaa !761
  store ptr %1, ptr %5, align 8, !tbaa !759
  %6 = load ptr, ptr %5, align 8, !tbaa !759
  %7 = call noundef i32 @_ZNK4Json5Value4sizeEv(ptr noundef nonnull align 8 dereferenceable(40) %6)
  %8 = icmp ne i32 %7, 3
  br i1 %8, label %9, label %10

9:                                                ; preds = %2
  store i1 false, ptr %3, align 1
  br label %26

10:                                               ; preds = %2
  %11 = load ptr, ptr %5, align 8, !tbaa !759
  %12 = call noundef nonnull align 8 dereferenceable(40) ptr @_ZNK4Json5ValueixEi(ptr noundef nonnull align 8 dereferenceable(40) %11, i32 noundef 0)
  %13 = call noundef double @_ZNK4Json5Value8asDoubleEv(ptr noundef nonnull align 8 dereferenceable(40) %12)
  %14 = load ptr, ptr %4, align 8, !tbaa !761
  %15 = call noundef nonnull align 8 dereferenceable(8) ptr @_ZN5Eigen15DenseCoeffsBaseINS_6MatrixIdLi3ELi1ELi0ELi3ELi1EEELi1EEclEl(ptr noundef nonnull align 1 dereferenceable(1) %14, i64 noundef 0)
  store double %13, ptr %15, align 8, !tbaa !136
  %16 = load ptr, ptr %5, align 8, !tbaa !759
  %17 = call noundef nonnull align 8 dereferenceable(40) ptr @_ZNK4Json5ValueixEi(ptr noundef nonnull align 8 dereferenceable(40) %16, i32 noundef 1)
  %18 = call noundef double @_ZNK4Json5Value8asDoubleEv(ptr noundef nonnull align 8 dereferenceable(40) %17)
  %19 = load ptr, ptr %4, align 8, !tbaa !761
  %20 = call noundef nonnull align 8 dereferenceable(8) ptr @_ZN5Eigen15DenseCoeffsBaseINS_6MatrixIdLi3ELi1ELi0ELi3ELi1EEELi1EEclEl(ptr noundef nonnull align 1 dereferenceable(1) %19, i64 noundef 1)
  store double %18, ptr %20, align 8, !tbaa !136
  %21 = load ptr, ptr %5, align 8, !tbaa !759
  %22 = call noundef nonnull align 8 dereferenceable(40) ptr @_ZNK4Json5ValueixEi(ptr noundef nonnull align 8 dereferenceable(40) %21, i32 noundef 2)
  %23 = call noundef double @_ZNK4Json5Value8asDoubleEv(ptr noundef nonnull align 8 dereferenceable(40) %22)
  %24 = load ptr, ptr %4, align 8, !tbaa !761
  %25 = call noundef nonnull align 8 dereferenceable(8) ptr @_ZN5Eigen15DenseCoeffsBaseINS_6MatrixIdLi3ELi1ELi0ELi3ELi1EEELi1EEclEl(ptr noundef nonnull align 1 dereferenceable(1) %24, i64 noundef 2)
  store double %23, ptr %25, align 8, !tbaa !136
  store i1 true, ptr %3, align 1
  br label %26

26:                                               ; preds = %10, %9
  %27 = load i1, ptr %3, align 1
  ret i1 %27
}